; Function Attrs: mustprogress nounwind uwtable
define hidden noundef ptr @_ZN8IndexSet11alloc_blockEv(ptr nocapture noundef nonnull readnone align 8 dereferenceable(160) %0) local_unnamed_addr #0 align 2 {
  %2 = tail call align 8 ptr @llvm.threadlocal.address.p0(ptr align 8 @_ZN6Thread12_thr_currentE)
  %3 = load ptr, ptr %2, align 8
  %4 = getelementptr inbounds i8, ptr %3, i64 1808
  %5 = load ptr, ptr %4, align 8
  %6 = getelementptr inbounds i8, ptr %5, i64 128
  %7 = load ptr, ptr %6, align 8
  %8 = getelementptr inbounds i8, ptr %7, i64 2272
  %9 = load ptr, ptr %8, align 8
  %10 = icmp eq ptr %9, null
  br i1 %10, label %11, label %31

11:                                               ; preds = %1
  %12 = getelementptr inbounds i8, ptr %7, i64 2264
  %13 = load ptr, ptr %12, align 8
  %14 = getelementptr inbounds i8, ptr %13, i64 40
  %15 = load ptr, ptr %14, align 8
  %16 = getelementptr inbounds i8, ptr %13, i64 32
  %17 = load ptr, ptr %16, align 8
  %18 = ptrtoint ptr %15 to i64
  %19 = ptrtoint ptr %17 to i64
  %20 = sub i64 %18, %19
  %.not.i.i.i = icmp ult i64 %20, 1632
  br i1 %.not.i.i.i, label %23, label %21

21:                                               ; preds = %11
  %22 = getelementptr inbounds i8, ptr %17, i64 1632
  store ptr %22, ptr %16, align 8
  br label %_ZN5Arena12AmallocWordsEmN17AllocFailStrategy13AllocFailEnumE.exit.i

23:                                               ; preds = %11
  %24 = tail call noundef ptr @_ZN5Arena4growEmN17AllocFailStrategy13AllocFailEnumE(ptr noundef nonnull align 8 dereferenceable(48) %13, i64 noundef 1632, i32 noundef 0) #8
  %.pre.i = ptrtoint ptr %24 to i64
  br label %_ZN5Arena12AmallocWordsEmN17AllocFailStrategy13AllocFailEnumE.exit.i

_ZN5Arena12AmallocWordsEmN17AllocFailStrategy13AllocFailEnumE.exit.i: ; preds = %23, %21
  %.pre-phi.i = phi i64 [ %19, %21 ], [ %.pre.i, %23 ]
  %25 = and i64 %.pre-phi.i, -32
  %26 = add i64 %25, 32
  %27 = inttoptr i64 %26 to ptr
  br label %28

28:                                               ; preds = %28, %_ZN5Arena12AmallocWordsEmN17AllocFailStrategy13AllocFailEnumE.exit.i
  %.013.i = phi i32 [ 0, %_ZN5Arena12AmallocWordsEmN17AllocFailStrategy13AllocFailEnumE.exit.i ], [ %30, %28 ]
  %.0912.i = phi ptr [ %27, %_ZN5Arena12AmallocWordsEmN17AllocFailStrategy13AllocFailEnumE.exit.i ], [ %29, %28 ]
  %.01011.i = phi ptr [ null, %_ZN5Arena12AmallocWordsEmN17AllocFailStrategy13AllocFailEnumE.exit.i ], [ %.0912.i, %28 ]
  store ptr %.01011.i, ptr %.0912.i, align 8
  %29 = getelementptr inbounds i8, ptr %.0912.i, i64 32
  %30 = add nuw nsw i32 %.013.i, 1
  %exitcond.not.i = icmp eq i32 %30, 50
  br i1 %exitcond.not.i, label %_ZN8IndexSet18populate_free_listEv.exit, label %28, !llvm.loop !6

_ZN8IndexSet18populate_free_listEv.exit:          ; preds = %28
  store ptr %.0912.i, ptr %8, align 8
  br label %31

31:                                               ; preds = %_ZN8IndexSet18populate_free_listEv.exit, %1
  %.0 = phi ptr [ %.0912.i, %_ZN8IndexSet18populate_free_listEv.exit ], [ %9, %1 ]
  %32 = load ptr, ptr %.0, align 8
  store ptr %32, ptr %8, align 8
  tail call void @llvm.memset.p0.i64(ptr noundef nonnull align 8 dereferenceable(32) %.0, i8 0, i64 32, i1 false)
  ret ptr %.0
}